; Function Attrs: mustprogress uwtable
define noundef zeroext i1 @_ZN8QuantLib11AlphaFinder20testIfSolutionExistsEd(ptr nocapture noundef nonnull align 8 dereferenceable(176) %this, double noundef %alpha) local_unnamed_addr #1 align 2 {
entry:
  %dum1 = alloca double, align 8
  %dum2 = alloca double, align 8
  %dum3 = alloca double, align 8
  %call = tail call noundef double @_ZN8QuantLib11AlphaFinder19valueAtTurningPointEd(ptr noundef nonnull align 8 dereferenceable(176) %this, double noundef %alpha)
  %targetVariance_ = getelementptr inbounds nuw i8, ptr %this, i64 168
  %0 = load double, ptr %targetVariance_, align 8, !tbaa !30
  %cmp = fcmp olt double %call, %0
  br i1 %cmp, label %if.end, label %cleanup

if.end:                                           ; preds = %entry
  call void @llvm.lifetime.start.p0(i64 8, ptr nonnull %dum1) #14
  call void @llvm.lifetime.start.p0(i64 8, ptr nonnull %dum2) #14
  call void @llvm.lifetime.start.p0(i64 8, ptr nonnull %dum3) #14
  %stepindex_ = getelementptr inbounds nuw i8, ptr %this, i64 16
  %1 = load i32, ptr %stepindex_, align 8, !tbaa !13
  %ratetwohomogeneousvols_ = getelementptr inbounds nuw i8, ptr %this, i64 48
  %2 = load ptr, ptr %this, align 8, !tbaa !3
  %cmp.not.i.i = icmp eq ptr %2, null
  br i1 %cmp.not.i.i, label %cond.false.i.i, label %_ZNK5boost10shared_ptrIN8QuantLib9AlphaFormEEptEv.exit.i, !prof !10

cond.false.i.i:                                   ; preds = %if.end
  tail call void @_ZN5boost16assertion_failedEPKcS1_S1_l(ptr noundef nonnull @.str, ptr noundef nonnull @__PRETTY_FUNCTION__._ZNK5boost10shared_ptrIN8QuantLib9AlphaFormEEptEv, ptr noundef nonnull @.str.1, i64 noundef 784)
  %.pre.i.i = load ptr, ptr %this, align 8, !tbaa !3
  br label %_ZNK5boost10shared_ptrIN8QuantLib9AlphaFormEEptEv.exit.i

_ZNK5boost10shared_ptrIN8QuantLib9AlphaFormEEptEv.exit.i: ; preds = %cond.false.i.i, %if.end
  %3 = phi ptr [ %2, %if.end ], [ %.pre.i.i, %cond.false.i.i ]
  %vtable.i = load ptr, ptr %3, align 8, !tbaa !11
  %vfn.i = getelementptr inbounds i8, ptr %vtable.i, i64 24
  %4 = load ptr, ptr %vfn.i, align 8
  tail call void %4(ptr noundef nonnull align 8 dereferenceable(8) %3, double noundef %alpha)
  %5 = load i32, ptr %stepindex_, align 8, !tbaa !13
  %cmp.not10.i = icmp slt i32 %5, 0
  br i1 %cmp.not10.i, label %_ZN8QuantLib11AlphaFinder20computeQuadraticPartEd.exit, label %for.body.i

for.body.i:                                       ; preds = %_ZNK5boost10shared_ptrIN8QuantLib9AlphaFormEEptEv.exit.i, %_ZNK5boost10shared_ptrIN8QuantLib9AlphaFormEEdeEv.exit.i
  %indvars.iv.i = phi i64 [ %indvars.iv.next.i, %_ZNK5boost10shared_ptrIN8QuantLib9AlphaFormEEdeEv.exit.i ], [ 0, %_ZNK5boost10shared_ptrIN8QuantLib9AlphaFormEEptEv.exit.i ]
  %var.012.i = phi double [ %12, %_ZNK5boost10shared_ptrIN8QuantLib9AlphaFormEEdeEv.exit.i ], [ 0.000000e+00, %_ZNK5boost10shared_ptrIN8QuantLib9AlphaFormEEptEv.exit.i ]
  %6 = load ptr, ptr %ratetwohomogeneousvols_, align 8, !tbaa !23
  %add.ptr.i.i = getelementptr inbounds nuw double, ptr %6, i64 %indvars.iv.i
  %7 = load double, ptr %add.ptr.i.i, align 8, !tbaa !24
  %8 = load ptr, ptr %this, align 8, !tbaa !3
  %cmp.not.i7.i = icmp eq ptr %8, null
  br i1 %cmp.not.i7.i, label %cond.false.i8.i, label %_ZNK5boost10shared_ptrIN8QuantLib9AlphaFormEEdeEv.exit.i, !prof !10

cond.false.i8.i:                                  ; preds = %for.body.i
  tail call void @_ZN5boost16assertion_failedEPKcS1_S1_l(ptr noundef nonnull @.str, ptr noundef nonnull @__PRETTY_FUNCTION__._ZNK5boost10shared_ptrIN8QuantLib9AlphaFormEEdeEv, ptr noundef nonnull @.str.1, i64 noundef 778)
  %.pre.i9.i = load ptr, ptr %this, align 8, !tbaa !3
  br label %_ZNK5boost10shared_ptrIN8QuantLib9AlphaFormEEdeEv.exit.i

_ZNK5boost10shared_ptrIN8QuantLib9AlphaFormEEdeEv.exit.i: ; preds = %cond.false.i8.i, %for.body.i
  %9 = phi ptr [ %8, %for.body.i ], [ %.pre.i9.i, %cond.false.i8.i ]
  %vtable5.i = load ptr, ptr %9, align 8, !tbaa !11
  %vfn6.i = getelementptr inbounds i8, ptr %vtable5.i, i64 16
  %10 = load ptr, ptr %vfn6.i, align 8
  %11 = trunc nuw nsw i64 %indvars.iv.i to i32
  %call7.i = tail call noundef double %10(ptr noundef nonnull align 8 dereferenceable(8) %9, i32 noundef %11)
  %mul.i = fmul double %7, %call7.i
  %12 = tail call double @llvm.fmuladd.f64(double %mul.i, double %mul.i, double %var.012.i)
  %indvars.iv.next.i = add nuw nsw i64 %indvars.iv.i, 1
  %13 = load i32, ptr %stepindex_, align 8, !tbaa !13
  %14 = sext i32 %13 to i64
  %cmp.not.not.i = icmp slt i64 %indvars.iv.i, %14
  br i1 %cmp.not.not.i, label %for.body.i, label %_ZN8QuantLib11AlphaFinder20computeQuadraticPartEd.exit, !llvm.loop !27

_ZN8QuantLib11AlphaFinder20computeQuadraticPartEd.exit: ; preds = %_ZNK5boost10shared_ptrIN8QuantLib9AlphaFormEEdeEv.exit.i, %_ZNK5boost10shared_ptrIN8QuantLib9AlphaFormEEptEv.exit.i
  %var.0.lcssa.i = phi double [ 0.000000e+00, %_ZNK5boost10shared_ptrIN8QuantLib9AlphaFormEEptEv.exit.i ], [ %12, %_ZNK5boost10shared_ptrIN8QuantLib9AlphaFormEEdeEv.exit.i ]
  %w1_.i = getelementptr inbounds nuw i8, ptr %this, i64 128
  %15 = load double, ptr %w1_.i, align 8, !tbaa !22
  %mul10.i = fmul double %15, %15
  %mul11.i = fmul double %var.0.lcssa.i, %mul10.i
  %call3 = tail call noundef double @_ZN8QuantLib11AlphaFinder17computeLinearPartEd(ptr noundef nonnull align 8 dereferenceable(176) %this, double noundef %alpha)
  %constantPart_ = getelementptr inbounds nuw i8, ptr %this, i64 136
  %16 = load double, ptr %constantPart_, align 8, !tbaa !28
  %putativevols_ = getelementptr inbounds nuw i8, ptr %this, i64 72
  %call4 = call noundef zeroext i1 @_ZN8QuantLib11AlphaFinder9finalPartEdiRKSt6vectorIdSaIdEEdddRdS6_S6_RS3_(ptr noundef nonnull align 8 dereferenceable(176) %this, double noundef %alpha, i32 noundef %1, ptr noundef nonnull align 8 dereferenceable(24) %ratetwohomogeneousvols_, double noundef %mul11.i, double noundef %call3, double noundef %16, ptr noundef nonnull align 8 dereferenceable(8) %dum1, ptr noundef nonnull align 8 dereferenceable(8) %dum2, ptr noundef nonnull align 8 dereferenceable(8) %dum3, ptr noundef nonnull align 8 dereferenceable(24) %putativevols_)
  call void @llvm.lifetime.end.p0(i64 8, ptr nonnull %dum3) #14
  call void @llvm.lifetime.end.p0(i64 8, ptr nonnull %dum2) #14
  call void @llvm.lifetime.end.p0(i64 8, ptr nonnull %dum1) #14
  br label %cleanup

cleanup:                                          ; preds = %entry, %_ZN8QuantLib11AlphaFinder20computeQuadraticPartEd.exit
  %retval.0 = phi i1 [ %call4, %_ZN8QuantLib11AlphaFinder20computeQuadraticPartEd.exit ], [ false, %entry ]
  ret i1 %retval.0
}